target datalayout = "e-m:e-p270:32:32-p271:32:32-p272:64:64-i64:64-i128:128-f80:128-n8:16:32:64-S128"
target triple = "x86_64-pc-linux-gnu"

@.str.33 = private unnamed_addr constant [38 x i8] c"../openssl/test/evp_fetch_prov_test.c\00", align 1
@.str.37 = private unnamed_addr constant [2 x i8] c"0\00", align 1
@.str.56 = private unnamed_addr constant [36 x i8] c"OBJ_obj2txt(id, sizeof(id), obj, 0)\00", align 1
@.str.57 = private unnamed_addr constant [36 x i8] c"OBJ_obj2txt(id, sizeof(id), obj, 1)\00", align 1
@.str.58 = private unnamed_addr constant [25 x i8] c"algor = X509_ALGOR_new()\00", align 1
@.str.59 = private unnamed_addr constant [61 x i8] c"X509_ALGOR_set0(algor, OBJ_nid2obj(nid), V_ASN1_UNDEF, NULL)\00", align 1

; Function Attrs: nounwind uwtable
define internal ptr @make_algor(i32 noundef %0) #0 {
  %2 = alloca ptr, align 8
  %3 = alloca i32, align 4
  %4 = alloca ptr, align 8
  %5 = alloca i32, align 4
  store i32 %0, ptr %3, align 4, !tbaa !4
  call void @llvm.lifetime.start.p0(i64 8, ptr %4) #6
  %6 = call ptr @X509_ALGOR_new()
  store ptr %6, ptr %4, align 8, !tbaa !15
  %7 = call i32 @test_ptr(ptr noundef @.str.33, i32 noundef 149, ptr noundef @.str.58, ptr noundef %6)
  %8 = icmp ne i32 %7, 0
  br i1 %8, label %9, label %18

9:                                                ; preds = %1
  %10 = load ptr, ptr %4, align 8, !tbaa !15
  %11 = load i32, ptr %3, align 4, !tbaa !4
  %12 = call ptr @OBJ_nid2obj(i32 noundef %11)
  %13 = call i32 @X509_ALGOR_set0(ptr noundef %10, ptr noundef %12, i32 noundef -1, ptr noundef null)
  %14 = icmp ne i32 %13, 0
  %15 = zext i1 %14 to i32
  %16 = call i32 @test_true(ptr noundef @.str.33, i32 noundef 151, ptr noundef @.str.59, i32 noundef %15)
  %17 = icmp ne i32 %16, 0
  br i1 %17, label %20, label %18

18:                                               ; preds = %9, %1
  %19 = load ptr, ptr %4, align 8, !tbaa !15
  call void @X509_ALGOR_free(ptr noundef %19)
  store ptr null, ptr %2, align 8
  store i32 1, ptr %5, align 4
  br label %22

20:                                               ; preds = %9
  %21 = load ptr, ptr %4, align 8, !tbaa !15
  store ptr %21, ptr %2, align 8
  store i32 1, ptr %5, align 4
  br label %22

22:                                               ; preds = %20, %18
  call void @llvm.lifetime.end.p0(i64 8, ptr %4) #6
  %23 = load ptr, ptr %2, align 8
  ret ptr %23
}

; Function Attrs: nounwind uwtable
define internal i32 @test_explicit_EVP_MD_fetch_by_X509_ALGOR(i32 noundef %0) #0 {
  %2 = alloca i32, align 4
  %3 = alloca i32, align 4
  %4 = alloca i32, align 4
  %5 = alloca ptr, align 8
  %6 = alloca ptr, align 8
  %7 = alloca [50 x i8], align 16
  %8 = alloca i32, align 4
  store i32 %0, ptr %3, align 4, !tbaa !4
  call void @llvm.lifetime.start.p0(i64 4, ptr %4) #6
  store i32 0, ptr %4, align 4, !tbaa !4
  call void @llvm.lifetime.start.p0(i64 8, ptr %5) #6
  %9 = call ptr @make_algor(i32 noundef 672)
  store ptr %9, ptr %5, align 8, !tbaa !15
  call void @llvm.lifetime.start.p0(i64 8, ptr %6) #6
  call void @llvm.lifetime.start.p0(i64 50, ptr %7) #6
  call void @llvm.memset.p0.i64(ptr align 16 %7, i8 0, i64 50, i1 false)
  %10 = load ptr, ptr %5, align 8, !tbaa !15
  %11 = icmp eq ptr %10, null
  br i1 %11, label %12, label %13

12:                                               ; preds = %1
  store i32 0, ptr %2, align 4
  store i32 1, ptr %8, align 4
  br label %38

13:                                               ; preds = %1
  %14 = load ptr, ptr %5, align 8, !tbaa !15
  call void @X509_ALGOR_get0(ptr noundef %6, ptr noundef null, ptr noundef null, ptr noundef %14)
  %15 = load i32, ptr %3, align 4, !tbaa !4
  switch i32 %15, label %32 [
    i32 0, label %16
    i32 1, label %24
  ]

16:                                               ; preds = %13
  %17 = getelementptr inbounds [50 x i8], ptr %7, i64 0, i64 0
  %18 = load ptr, ptr %6, align 8, !tbaa !17
  %19 = call i32 @OBJ_obj2txt(ptr noundef %17, i32 noundef 50, ptr noundef %18, i32 noundef 0)
  %20 = call i32 @test_int_gt(ptr noundef @.str.33, i32 noundef 244, ptr noundef @.str.56, ptr noundef @.str.37, i32 noundef %19, i32 noundef 0)
  %21 = icmp ne i32 %20, 0
  br i1 %21, label %23, label %22

22:                                               ; preds = %16
  br label %35

23:                                               ; preds = %16
  br label %32

24:                                               ; preds = %13
  %25 = getelementptr inbounds [50 x i8], ptr %7, i64 0, i64 0
  %26 = load ptr, ptr %6, align 8, !tbaa !17
  %27 = call i32 @OBJ_obj2txt(ptr noundef %25, i32 noundef 50, ptr noundef %26, i32 noundef 1)
  %28 = call i32 @test_int_gt(ptr noundef @.str.33, i32 noundef 248, ptr noundef @.str.57, ptr noundef @.str.37, i32 noundef %27, i32 noundef 0)
  %29 = icmp ne i32 %28, 0
  br i1 %29, label %31, label %30

30:                                               ; preds = %24
  br label %35

31:                                               ; preds = %24
  br label %32

32:                                               ; preds = %13, %31, %23
  %33 = getelementptr inbounds [50 x i8], ptr %7, i64 0, i64 0
  %34 = call i32 @test_explicit_EVP_MD_fetch(ptr noundef %33)
  store i32 %34, ptr %4, align 4, !tbaa !4
  br label %35

35:                                               ; preds = %32, %30, %22
  %36 = load ptr, ptr %5, align 8, !tbaa !15
  call void @X509_ALGOR_free(ptr noundef %36)
  %37 = load i32, ptr %4, align 4, !tbaa !4
  store i32 %37, ptr %2, align 4
  store i32 1, ptr %8, align 4
  br label %38

38:                                               ; preds = %35, %12
  call void @llvm.lifetime.end.p0(i64 50, ptr %7) #6
  call void @llvm.lifetime.end.p0(i64 8, ptr %6) #6
  call void @llvm.lifetime.end.p0(i64 8, ptr %5) #6
  call void @llvm.lifetime.end.p0(i64 4, ptr %4) #6
  %39 = load i32, ptr %2, align 4
  ret i32 %39
}